; Function Attrs: mustprogress nofree norecurse nosync nounwind willreturn memory(argmem: readwrite) uwtable
define hidden void @_ZN4LIEF10SpanStreamC2EOS0_(ptr nocapture noundef nonnull writeonly align 8 dereferenceable(40) %0, ptr nocapture noundef nonnull readonly align 8 dereferenceable(40) %1) unnamed_addr #3 align 2 {
  store ptr getelementptr inbounds ({ [15 x ptr] }, ptr @_ZTVN4LIEF12BinaryStreamE, i64 0, i32 0, i64 2), ptr %0, align 8
  %3 = getelementptr inbounds i8, ptr %0, i64 8
  %4 = getelementptr inbounds i8, ptr %1, i64 8
  tail call void @llvm.memcpy.p0.p0.i64(ptr noundef nonnull align 8 dereferenceable(16) %3, ptr noundef nonnull align 8 dereferenceable(16) %4, i64 16, i1 false)
  store ptr getelementptr inbounds ({ [15 x ptr] }, ptr @_ZTVN4LIEF10SpanStreamE, i64 0, i32 0, i64 2), ptr %0, align 8
  %5 = getelementptr inbounds i8, ptr %0, i64 24
  %6 = getelementptr inbounds i8, ptr %1, i64 24
  tail call void @llvm.memcpy.p0.p0.i64(ptr noundef nonnull align 8 dereferenceable(16) %5, ptr noundef nonnull align 8 dereferenceable(16) %6, i64 16, i1 false)
  ret void
}